; Function Attrs: mustprogress uwtable
define dso_local noundef ptr @_ZN4pbrt20FloatConstantTexture6CreateERKNS_9TransformERKNS_26TextureParameterDictionaryEPKNS_7FileLocEN4pstd3pmr21polymorphic_allocatorISt4byteEE(ptr nocapture nonnull readnone align 4 %renderFromTexture, ptr noundef nonnull align 8 dereferenceable(16) %parameters, ptr nocapture readnone %loc, ptr %alloc.coerce) local_unnamed_addr #0 align 2 personality ptr @__gxx_personality_v0 {
entry:
  %ref.tmp1 = alloca %"class.std::__cxx11::basic_string", align 8
  %ref.tmp2 = alloca %"class.std::allocator", align 1
  call void @_ZNSaIcEC1Ev(ptr noundef nonnull align 1 dereferenceable(1) %ref.tmp2) #23
  %call.i2 = invoke noundef ptr @_ZNSt7__cxx1112basic_stringIcSt11char_traitsIcESaIcEE13_M_local_dataEv(ptr noundef nonnull align 8 dereferenceable(32) %ref.tmp1)
          to label %call.i.noexc unwind label %lpad

call.i.noexc:                                     ; preds = %entry
  invoke void @_ZNSt7__cxx1112basic_stringIcSt11char_traitsIcESaIcEE12_Alloc_hiderC1EPcRKS3_(ptr noundef nonnull align 8 dereferenceable(8) %ref.tmp1, ptr noundef %call.i2, ptr noundef nonnull align 1 dereferenceable(1) %ref.tmp2)
          to label %.noexc unwind label %lpad

.noexc:                                           ; preds = %call.i.noexc
  invoke void @_ZNSt7__cxx1112basic_stringIcSt11char_traitsIcESaIcEE12_M_constructIPKcEEvT_S8_St20forward_iterator_tag(ptr noundef nonnull align 8 dereferenceable(32) %ref.tmp1, ptr noundef nonnull @.str.23, ptr noundef nonnull getelementptr inbounds ([6 x i8], ptr @.str.23, i64 0, i64 5))
          to label %invoke.cont unwind label %lpad.i

lpad.i:                                           ; preds = %.noexc
  %0 = landingpad { ptr, i32 }
          cleanup
  call void @_ZNSaIcED2Ev(ptr noundef nonnull align 1 dereferenceable(1) %ref.tmp1) #23
  br label %ehcleanup

invoke.cont:                                      ; preds = %.noexc
  %call = invoke noundef float @_ZNK4pbrt26TextureParameterDictionary11GetOneFloatERKNSt7__cxx1112basic_stringIcSt11char_traitsIcESaIcEEEf(ptr noundef nonnull align 8 dereferenceable(16) %parameters, ptr noundef nonnull align 8 dereferenceable(32) %ref.tmp1, float noundef 1.000000e+00)
          to label %invoke.cont4 unwind label %lpad3

invoke.cont4:                                     ; preds = %invoke.cont
  %vtable.i.i.i.i = load ptr, ptr %alloc.coerce, align 8
  %vfn.i.i.i.i = getelementptr inbounds i8, ptr %vtable.i.i.i.i, i64 16
  %1 = load ptr, ptr %vfn.i.i.i.i, align 8
  %call.i.i.i.i3 = invoke noundef ptr %1(ptr noundef nonnull align 8 dereferenceable(8) %alloc.coerce, i64 noundef 4, i64 noundef 4)
          to label %invoke.cont5 unwind label %lpad3

invoke.cont5:                                     ; preds = %invoke.cont4
  store float %call, ptr %call.i.i.i.i3, align 4
  call void @_ZNSt7__cxx1112basic_stringIcSt11char_traitsIcESaIcEED1Ev(ptr noundef nonnull align 8 dereferenceable(32) %ref.tmp1) #23
  call void @_ZNSaIcED1Ev(ptr noundef nonnull align 1 dereferenceable(1) %ref.tmp2) #23
  ret ptr %call.i.i.i.i3

lpad:                                             ; preds = %call.i.noexc, %entry
  %2 = landingpad { ptr, i32 }
          cleanup
  br label %ehcleanup

lpad3:                                            ; preds = %invoke.cont4, %invoke.cont
  %3 = landingpad { ptr, i32 }
          cleanup
  call void @_ZNSt7__cxx1112basic_stringIcSt11char_traitsIcESaIcEED1Ev(ptr noundef nonnull align 8 dereferenceable(32) %ref.tmp1) #23
  br label %ehcleanup

ehcleanup:                                        ; preds = %lpad, %lpad.i, %lpad3
  %.pn = phi { ptr, i32 } [ %3, %lpad3 ], [ %2, %lpad ], [ %0, %lpad.i ]
  call void @_ZNSaIcED1Ev(ptr noundef nonnull align 1 dereferenceable(1) %ref.tmp2) #23
  resume { ptr, i32 } %.pn
}